target datalayout = "e-m:e-p270:32:32-p271:32:32-p272:64:64-i64:64-i128:128-f80:128-n8:16:32:64-S128"
target triple = "x86_64-unknown-linux-gnu"

%class.symbol = type { ptr }
%class.obj_ref = type { ptr, ptr }
%class.peq = type { ptr, %class.obj_ref.0, %class.obj_ref.0, %class.vector, %class.obj_ref.1, %class.obj_ref, %class.obj_ref, %class.array_util, %class.symbol }
%class.obj_ref.0 = type { ptr, ptr }
%class.vector = type { ptr }
%class.obj_ref.1 = type { ptr, ptr }
%class.array_util = type { %class.array_recognizers, ptr }
%class.array_recognizers = type { i32 }

@_ZN3peqC1EP4exprS1_RK6vectorI10ref_vectorIS0_11ast_managerELb1EjERS4_ = hidden unnamed_addr alias void (ptr, ptr, ptr, ptr, ptr), ptr @_ZN3peqC2EP4exprS1_RK6vectorI10ref_vectorIS0_11ast_managerELb1EjERS4_

; Function Attrs: mustprogress uwtable
define hidden void @_Z6mk_peqP4exprS0_RK6vectorI10ref_vectorIS_11ast_managerELb1EjERS3_(ptr noalias sret(%class.obj_ref) align 8 %agg.result, ptr noundef %e0, ptr noundef %e1, ptr noundef nonnull align 8 dereferenceable(8) %indices, ptr noundef nonnull align 8 dereferenceable(976) %m) #4 personality ptr @__gxx_personality_v0 {
entry:
  %result.ptr = alloca ptr, align 8
  %e0.addr = alloca ptr, align 8
  %e1.addr = alloca ptr, align 8
  %indices.addr = alloca ptr, align 8
  %m.addr = alloca ptr, align 8
  %p = alloca %class.peq, align 8
  %exn.slot = alloca ptr, align 8
  %ehselector.slot = alloca i32, align 4
  store ptr %agg.result, ptr %result.ptr, align 8
  store ptr %e0, ptr %e0.addr, align 8
  store ptr %e1, ptr %e1.addr, align 8
  store ptr %indices, ptr %indices.addr, align 8
  store ptr %m, ptr %m.addr, align 8
  %0 = load ptr, ptr %e0.addr, align 8
  %1 = load ptr, ptr %e1.addr, align 8
  %2 = load ptr, ptr %indices.addr, align 8
  %3 = load ptr, ptr %m.addr, align 8
  call void @_ZN3peqC1EP4exprS1_RK6vectorI10ref_vectorIS0_11ast_managerELb1EjERS4_(ptr noundef nonnull align 8 dereferenceable(120) %p, ptr noundef %0, ptr noundef %1, ptr noundef nonnull align 8 dereferenceable(8) %2, ptr noundef nonnull align 8 dereferenceable(976) %3)
  invoke void @_ZN3peq6mk_peqEv(ptr sret(%class.obj_ref) align 8 %agg.result, ptr noundef nonnull align 8 dereferenceable(120) %p)
          to label %invoke.cont unwind label %lpad

invoke.cont:                                      ; preds = %entry
  call void @_ZN3peqD2Ev(ptr noundef nonnull align 8 dereferenceable(120) %p) #3
  ret void

lpad:                                             ; preds = %entry
  %4 = landingpad { ptr, i32 }
          cleanup
  %5 = extractvalue { ptr, i32 } %4, 0
  store ptr %5, ptr %exn.slot, align 8
  %6 = extractvalue { ptr, i32 } %4, 1
  store i32 %6, ptr %ehselector.slot, align 4
  call void @_ZN3peqD2Ev(ptr noundef nonnull align 8 dereferenceable(120) %p) #3
  br label %eh.resume

eh.resume:                                        ; preds = %lpad
  %exn = load ptr, ptr %exn.slot, align 8
  %sel = load i32, ptr %ehselector.slot, align 4
  %lpad.val = insertvalue { ptr, i32 } poison, ptr %exn, 0
  %lpad.val1 = insertvalue { ptr, i32 } %lpad.val, i32 %sel, 1
  resume { ptr, i32 } %lpad.val1
}