; Function Attrs: mustprogress uwtable
define hidden void @_Z6mk_peqP4exprS0_RK6vectorI10ref_vectorIS_11ast_managerELb1EjERS3_(ptr noalias nocapture writeonly sret(%class.obj_ref) align 8 %agg.result, ptr noundef %e0, ptr noundef %e1, ptr nocapture noundef nonnull readonly align 8 dereferenceable(8) %indices, ptr noundef nonnull align 8 dereferenceable(976) %m) local_unnamed_addr #3 personality ptr @__gxx_personality_v0 {
entry:
  %p = alloca %class.peq, align 8
  call void @_ZN3peqC2EP4exprS1_RK6vectorI10ref_vectorIS0_11ast_managerELb1EjERS4_(ptr noundef nonnull align 8 dereferenceable(120) %p, ptr noundef %e0, ptr noundef %e1, ptr noundef nonnull align 8 dereferenceable(8) %indices, ptr noundef nonnull align 8 dereferenceable(976) %m)
  invoke void @_ZN3peq6mk_peqEv(ptr sret(%class.obj_ref) align 8 %agg.result, ptr noundef nonnull align 8 dereferenceable(120) %p)
          to label %invoke.cont unwind label %lpad

invoke.cont:                                      ; preds = %entry
  call void @_ZN3peqD2Ev(ptr noundef nonnull align 8 dereferenceable(120) %p) #12
  ret void

lpad:                                             ; preds = %entry
  %0 = landingpad { ptr, i32 }
          cleanup
  call void @_ZN3peqD2Ev(ptr noundef nonnull align 8 dereferenceable(120) %p) #12
  resume { ptr, i32 } %0
}